; Function Attrs: mustprogress nounwind uwtable
define dso_local void @_ZN4node4quic15TransportParamsC2ENS1_4TypeE(ptr noundef nonnull align 8 dereferenceable(432) %this, i32 noundef %type) unnamed_addr #3 align 2 {
entry:
  store i32 %type, ptr %this, align 8
  %params_ = getelementptr inbounds i8, ptr %this, i64 8
  %version_info = getelementptr inbounds i8, ptr %this, i64 304
  %ptr_ = getelementptr inbounds i8, ptr %this, i64 336
  tail call void @llvm.memset.p0.i64(ptr noundef nonnull align 8 dereferenceable(293) %params_, i8 0, i64 293, i1 false)
  tail call void @llvm.memset.p0.i64(ptr noundef nonnull align 8 dereferenceable(25) %version_info, i8 0, i64 25, i1 false)
  store ptr %params_, ptr %ptr_, align 8
  %error_ = getelementptr inbounds i8, ptr %this, i64 344
  store ptr getelementptr inbounds ({ [10 x ptr] }, ptr @_ZTVN4node4quic9QuicErrorE, i64 0, i32 0, i64 2), ptr %error_, align 8
  %reason_.i = getelementptr inbounds i8, ptr %this, i64 352
  tail call void @_ZNSt7__cxx1112basic_stringIcSt11char_traitsIcESaIcEEC1ERKS4_(ptr noundef nonnull align 8 dereferenceable(32) %reason_.i, ptr noundef nonnull align 8 dereferenceable(32) getelementptr inbounds (%"class.node::quic::QuicError", ptr @_ZN4node4quic9QuicError18TRANSPORT_NO_ERRORE, i64 0, i32 1, i32 0, i32 0)) #19
  %error_.i = getelementptr inbounds i8, ptr %this, i64 384
  tail call void @llvm.memcpy.p0.p0.i64(ptr noundef nonnull align 8 dereferenceable(48) %error_.i, ptr noundef nonnull align 8 dereferenceable(48) getelementptr inbounds (%"class.node::quic::QuicError", ptr @_ZN4node4quic9QuicError18TRANSPORT_NO_ERRORE, i64 0, i32 2, i32 0), i64 48, i1 false)
  ret void
}